target datalayout = "e-m:e-p270:32:32-p271:32:32-p272:64:64-i64:64-i128:128-f80:128-n8:16:32:64-S128"
target triple = "x86_64-pc-linux-gnu"

@b1 = internal global ptr null, align 8
@b2 = internal global ptr null, align 8
@b3 = internal global ptr null, align 8
@b4 = internal global ptr null, align 8
@b5 = internal global ptr null, align 8
@ctx = internal global ptr null, align 8

; Function Attrs: nounwind uwtable
define dso_local i32 @FuzzerInitialize(ptr noundef %0, ptr noundef %1) #0 {
  %3 = alloca ptr, align 8
  %4 = alloca ptr, align 8
  store ptr %0, ptr %3, align 8, !tbaa !4
  store ptr %1, ptr %4, align 8, !tbaa !9
  %5 = call ptr @BN_new()
  store ptr %5, ptr @b1, align 8, !tbaa !11
  %6 = call ptr @BN_new()
  store ptr %6, ptr @b2, align 8, !tbaa !11
  %7 = call ptr @BN_new()
  store ptr %7, ptr @b3, align 8, !tbaa !11
  %8 = call ptr @BN_new()
  store ptr %8, ptr @b4, align 8, !tbaa !11
  %9 = call ptr @BN_new()
  store ptr %9, ptr @b5, align 8, !tbaa !11
  %10 = call ptr @BN_CTX_new()
  store ptr %10, ptr @ctx, align 8, !tbaa !13
  %11 = call i32 @OPENSSL_init_crypto(i64 noundef 2, ptr noundef null)
  call void @ERR_clear_error()
  ret i32 1
}