; Function Attrs: nounwind uwtable
define dso_local noundef i32 @FuzzerInitialize(ptr noundef readnone captures(none) %0, ptr noundef readnone captures(none) %1) local_unnamed_addr #0 {
  %3 = tail call ptr @BN_new() #5
  store ptr %3, ptr @b1, align 8, !tbaa !4
  %4 = tail call ptr @BN_new() #5
  store ptr %4, ptr @b2, align 8, !tbaa !4
  %5 = tail call ptr @BN_new() #5
  store ptr %5, ptr @b3, align 8, !tbaa !4
  %6 = tail call ptr @BN_new() #5
  store ptr %6, ptr @b4, align 8, !tbaa !4
  %7 = tail call ptr @BN_new() #5
  store ptr %7, ptr @b5, align 8, !tbaa !4
  %8 = tail call ptr @BN_CTX_new() #5
  store ptr %8, ptr @ctx, align 8, !tbaa !9
  %9 = tail call i32 @OPENSSL_init_crypto(i64 noundef 2, ptr noundef null) #5
  tail call void @ERR_clear_error() #5
  ret i32 1
}